target datalayout = "e-m:e-p270:32:32-p271:32:32-p272:64:64-i64:64-i128:128-f80:128-n8:16:32:64-S128"
target triple = "x86_64-pc-linux-gnu"

%struct.H5C_cache_entry_t = type { ptr, i64, i64, ptr, i8, ptr, i8, i8, i8, i8, i32, i8, i8, i8, i8, i8, i32, ptr, i32, i32, i32, i32, i32, i8, i8, ptr, ptr, ptr, ptr, ptr, ptr, i8, i32, i8, i64, ptr, i64, i64, i32, i8, i32, i32, i8, ptr, ptr, ptr }
%struct.H5C_class_t = type { i32, ptr, i32, i32, ptr, ptr, ptr, ptr, ptr, ptr, ptr, ptr, ptr, ptr }

@H5C_init_g = external global i8, align 1
@H5_libterm_g = external global i8, align 1
@.str = private unnamed_addr constant [102 x i8] c"generated/home/dtcxzyw/WorkSpace/Projects/compilers/llvm-opt-benchmark/bench/hdf5/hdf5/src/H5Centry.c\00", align 1
@H5E_CACHE_g = external global i64, align 8
@H5E_CANTNOTIFY_g = external global i64, align 8
@.str.63 = private unnamed_addr constant [53 x i8] c"can't notify parent about child entry dirty flag set\00", align 1
@__func__.H5C__mark_flush_dep_dirty = private unnamed_addr constant [26 x i8] c"H5C__mark_flush_dep_dirty\00", align 1

; Function Attrs: nounwind uwtable
define internal i32 @H5C__mark_flush_dep_dirty(ptr noundef %0) #0 {
  %2 = alloca ptr, align 8
  %3 = alloca i32, align 4
  %4 = alloca i32, align 4
  %5 = alloca i8, align 1
  store ptr %0, ptr %2, align 8, !tbaa !8
  call void @llvm.lifetime.start.p0(i64 4, ptr %3) #7
  call void @llvm.lifetime.start.p0(i64 4, ptr %4) #7
  store i32 0, ptr %4, align 4, !tbaa !10
  call void @llvm.lifetime.start.p0(i64 1, ptr %5) #7
  store i8 0, ptr %5, align 1, !tbaa !12
  %6 = load i8, ptr @H5C_init_g, align 1, !tbaa !12, !range !16, !noundef !17
  %7 = trunc i8 %6 to i1
  br i1 %7, label %12, label %8

8:                                                ; preds = %1
  %9 = load i8, ptr @H5_libterm_g, align 1, !tbaa !12, !range !16, !noundef !17
  %10 = trunc i8 %9 to i1
  %11 = xor i1 %10, true
  br label %12

12:                                               ; preds = %8, %1
  %13 = phi i1 [ true, %1 ], [ %11, %8 ]
  %14 = xor i1 %13, true
  %15 = xor i1 %14, true
  %16 = zext i1 %15 to i32
  %17 = sext i32 %16 to i64
  %18 = call i64 @llvm.expect.i64(i64 %17, i64 1)
  %19 = icmp ne i64 %18, 0
  br i1 %19, label %20, label %96

20:                                               ; preds = %12
  store i32 0, ptr %3, align 4, !tbaa !10
  br label %21

21:                                               ; preds = %91, %20
  %22 = load i32, ptr %3, align 4, !tbaa !10
  %23 = load ptr, ptr %2, align 8, !tbaa !8
  %24 = getelementptr inbounds nuw %struct.H5C_cache_entry_t, ptr %23, i32 0, i32 18
  %25 = load i32, ptr %24, align 8, !tbaa !107
  %26 = icmp ult i32 %22, %25
  br i1 %26, label %27, label %94

27:                                               ; preds = %21
  %28 = load ptr, ptr %2, align 8, !tbaa !8
  %29 = getelementptr inbounds nuw %struct.H5C_cache_entry_t, ptr %28, i32 0, i32 17
  %30 = load ptr, ptr %29, align 8, !tbaa !123
  %31 = load i32, ptr %3, align 4, !tbaa !10
  %32 = zext i32 %31 to i64
  %33 = getelementptr inbounds nuw ptr, ptr %30, i64 %32
  %34 = load ptr, ptr %33, align 8, !tbaa !8
  %35 = getelementptr inbounds nuw %struct.H5C_cache_entry_t, ptr %34, i32 0, i32 21
  %36 = load i32, ptr %35, align 4, !tbaa !106
  %37 = add i32 %36, 1
  store i32 %37, ptr %35, align 4, !tbaa !106
  %38 = load ptr, ptr %2, align 8, !tbaa !8
  %39 = getelementptr inbounds nuw %struct.H5C_cache_entry_t, ptr %38, i32 0, i32 17
  %40 = load ptr, ptr %39, align 8, !tbaa !123
  %41 = load i32, ptr %3, align 4, !tbaa !10
  %42 = zext i32 %41 to i64
  %43 = getelementptr inbounds nuw ptr, ptr %40, i64 %42
  %44 = load ptr, ptr %43, align 8, !tbaa !8
  %45 = getelementptr inbounds nuw %struct.H5C_cache_entry_t, ptr %44, i32 0, i32 5
  %46 = load ptr, ptr %45, align 8, !tbaa !68
  %47 = getelementptr inbounds nuw %struct.H5C_class_t, ptr %46, i32 0, i32 11
  %48 = load ptr, ptr %47, align 8, !tbaa !77
  %49 = icmp ne ptr %48, null
  br i1 %49, label %50, label %90

50:                                               ; preds = %27
  %51 = load ptr, ptr %2, align 8, !tbaa !8
  %52 = getelementptr inbounds nuw %struct.H5C_cache_entry_t, ptr %51, i32 0, i32 17
  %53 = load ptr, ptr %52, align 8, !tbaa !123
  %54 = load i32, ptr %3, align 4, !tbaa !10
  %55 = zext i32 %54 to i64
  %56 = getelementptr inbounds nuw ptr, ptr %53, i64 %55
  %57 = load ptr, ptr %56, align 8, !tbaa !8
  %58 = getelementptr inbounds nuw %struct.H5C_cache_entry_t, ptr %57, i32 0, i32 5
  %59 = load ptr, ptr %58, align 8, !tbaa !68
  %60 = getelementptr inbounds nuw %struct.H5C_class_t, ptr %59, i32 0, i32 11
  %61 = load ptr, ptr %60, align 8, !tbaa !77
  %62 = load ptr, ptr %2, align 8, !tbaa !8
  %63 = getelementptr inbounds nuw %struct.H5C_cache_entry_t, ptr %62, i32 0, i32 17
  %64 = load ptr, ptr %63, align 8, !tbaa !123
  %65 = load i32, ptr %3, align 4, !tbaa !10
  %66 = zext i32 %65 to i64
  %67 = getelementptr inbounds nuw ptr, ptr %64, i64 %66
  %68 = load ptr, ptr %67, align 8, !tbaa !8
  %69 = call i32 %61(i32 noundef 6, ptr noundef %68)
  %70 = icmp slt i32 %69, 0
  br i1 %70, label %71, label %90

71:                                               ; preds = %50
  br label %72

72:                                               ; preds = %71
  br label %73

73:                                               ; preds = %72
  br label %74

74:                                               ; preds = %73
  %75 = load i64, ptr @H5E_CACHE_g, align 8, !tbaa !14
  %76 = load i64, ptr @H5E_CANTNOTIFY_g, align 8, !tbaa !14
  %77 = call i32 (ptr, ptr, i32, i64, i64, ptr, ...) @H5E_printf_stack(ptr noundef @.str, ptr noundef @__func__.H5C__mark_flush_dep_dirty, i32 noundef 1344, i64 noundef %75, i64 noundef %76, ptr noundef @.str.63)
  br label %78

78:                                               ; preds = %74
  br label %79

79:                                               ; preds = %78
  store i8 1, ptr %5, align 1, !tbaa !12
  %80 = load i8, ptr %5, align 1, !tbaa !12, !range !16, !noundef !17
  %81 = trunc i8 %80 to i1
  %82 = zext i1 %81 to i8
  store i8 %82, ptr %5, align 1, !tbaa !12
  br label %83

83:                                               ; preds = %79
  br label %84

84:                                               ; preds = %83
  br label %85

85:                                               ; preds = %84
  store i32 -1, ptr %4, align 4, !tbaa !10
  br label %95

86:                                               ; No predecessors!
  br label %87

87:                                               ; preds = %86
  br label %88

88:                                               ; preds = %87
  br label %89

89:                                               ; preds = %88
  br label %90

90:                                               ; preds = %89, %50, %27
  br label %91

91:                                               ; preds = %90
  %92 = load i32, ptr %3, align 4, !tbaa !10
  %93 = add i32 %92, 1
  store i32 %93, ptr %3, align 4, !tbaa !10
  br label %21, !llvm.loop !162

94:                                               ; preds = %21
  br label %95

95:                                               ; preds = %94, %85
  br label %96

96:                                               ; preds = %95, %12
  %97 = load i32, ptr %4, align 4, !tbaa !10
  call void @llvm.lifetime.end.p0(i64 1, ptr %5) #7
  call void @llvm.lifetime.end.p0(i64 4, ptr %4) #7
  call void @llvm.lifetime.end.p0(i64 4, ptr %3) #7
  ret i32 %97
}